; Function Attrs: nounwind uwtable
define range(i64 -2147483648, 2147483648) i64 @mic_to_euc_kr(ptr noundef readonly captures(none) %0) local_unnamed_addr #1 {
  %2 = getelementptr inbounds nuw i8, ptr %0, i64 32
  %3 = getelementptr inbounds nuw i8, ptr %0, i64 64
  %4 = load i64, ptr %3, align 8
  %5 = inttoptr i64 %4 to ptr
  %6 = getelementptr inbounds nuw i8, ptr %0, i64 80
  %7 = load i64, ptr %6, align 8
  %8 = inttoptr i64 %7 to ptr
  %9 = getelementptr inbounds nuw i8, ptr %0, i64 96
  %10 = load i64, ptr %9, align 8
  %11 = trunc i64 %10 to i32
  %12 = getelementptr inbounds nuw i8, ptr %0, i64 112
  %13 = load i64, ptr %12, align 8
  %.not = icmp eq i64 %13, 0
  %14 = load i64, ptr %2, align 8
  %15 = trunc i64 %14 to i32
  %16 = getelementptr inbounds nuw i8, ptr %0, i64 48
  %17 = load i64, ptr %16, align 8
  %18 = trunc i64 %17 to i32
  tail call void @check_encoding_conversion_args(i32 noundef %15, i32 noundef %18, i32 noundef %11, i32 noundef 7, i32 noundef 3) #4
  %19 = icmp sgt i32 %11, 0
  br i1 %19, label %.lr.ph.i, label %mic2euc_kr.exit

.lr.ph.i:                                         ; preds = %1, %.backedge.i
  %.048.i = phi ptr [ %.0.be.i, %.backedge.i ], [ %5, %1 ]
  %.03247.i = phi ptr [ %.032.be.i, %.backedge.i ], [ %8, %1 ]
  %.03346.i = phi i32 [ %.033.be.i, %.backedge.i ], [ %11, %1 ]
  %20 = load i8, ptr %.048.i, align 1
  %.not.i = icmp sgt i8 %20, -1
  br i1 %.not.i, label %21, label %30

21:                                               ; preds = %.lr.ph.i
  %22 = icmp eq i8 %20, 0
  br i1 %22, label %23, label %25

23:                                               ; preds = %21
  br i1 %.not, label %24, label %mic2euc_kr.exit

24:                                               ; preds = %23
  tail call void @report_invalid_encoding(i32 noundef 7, ptr noundef nonnull %.048.i, i32 noundef %.03346.i) #5
  unreachable

25:                                               ; preds = %21
  %26 = getelementptr inbounds nuw i8, ptr %.03247.i, i64 1
  store i8 %20, ptr %.03247.i, align 1
  %27 = getelementptr inbounds nuw i8, ptr %.048.i, i64 1
  %28 = add nsw i32 %.03346.i, -1
  br label %.backedge.i

.backedge.i:                                      ; preds = %37, %25
  %.033.be.i = phi i32 [ %46, %37 ], [ %28, %25 ]
  %.032.be.i = phi ptr [ %43, %37 ], [ %26, %25 ]
  %.0.be.i = phi ptr [ %45, %37 ], [ %27, %25 ]
  %29 = icmp sgt i32 %.033.be.i, 0
  br i1 %29, label %.lr.ph.i, label %mic2euc_kr.exit, !llvm.loop !5

30:                                               ; preds = %.lr.ph.i
  %31 = tail call i32 @pg_encoding_verifymbchar(i32 noundef 7, ptr noundef nonnull %.048.i, i32 noundef %.03346.i) #4
  %32 = icmp slt i32 %31, 0
  br i1 %32, label %33, label %35

33:                                               ; preds = %30
  br i1 %.not, label %34, label %mic2euc_kr.exit

34:                                               ; preds = %33
  tail call void @report_invalid_encoding(i32 noundef 7, ptr noundef nonnull %.048.i, i32 noundef %.03346.i) #5
  unreachable

35:                                               ; preds = %30
  %36 = icmp eq i8 %20, -109
  br i1 %36, label %37, label %47

37:                                               ; preds = %35
  %38 = getelementptr inbounds nuw i8, ptr %.048.i, i64 1
  %39 = load i8, ptr %38, align 1
  %40 = getelementptr inbounds nuw i8, ptr %.03247.i, i64 1
  store i8 %39, ptr %.03247.i, align 1
  %41 = getelementptr inbounds nuw i8, ptr %.048.i, i64 2
  %42 = load i8, ptr %41, align 1
  %43 = getelementptr inbounds nuw i8, ptr %.03247.i, i64 2
  store i8 %42, ptr %40, align 1
  %44 = zext nneg i32 %31 to i64
  %45 = getelementptr inbounds nuw i8, ptr %.048.i, i64 %44
  %46 = sub nsw i32 %.03346.i, %31
  br label %.backedge.i

47:                                               ; preds = %35
  br i1 %.not, label %48, label %mic2euc_kr.exit

48:                                               ; preds = %47
  tail call void @report_untranslatable_char(i32 noundef 7, i32 noundef 3, ptr noundef nonnull %.048.i, i32 noundef %.03346.i) #5
  unreachable

mic2euc_kr.exit:                                  ; preds = %.backedge.i, %1, %23, %33, %47
  %.03242.i = phi ptr [ %.03247.i, %47 ], [ %.03247.i, %33 ], [ %.03247.i, %23 ], [ %8, %1 ], [ %.032.be.i, %.backedge.i ]
  %.038.i = phi ptr [ %.048.i, %47 ], [ %.048.i, %33 ], [ %.048.i, %23 ], [ %5, %1 ], [ %.0.be.i, %.backedge.i ]
  store i8 0, ptr %.03242.i, align 1
  %49 = ptrtoint ptr %.038.i to i64
  %50 = sub i64 %49, %4
  %sext = shl i64 %50, 32
  %51 = ashr exact i64 %sext, 32
  ret i64 %51
}